target datalayout = "e-m:e-p270:32:32-p271:32:32-p272:64:64-i64:64-i128:128-f80:128-n8:16:32:64-S128"
target triple = "x86_64-pc-linux-gnu"

%struct.UBiDiProps = type { ptr, ptr, ptr, ptr, ptr, %struct.UTrie2, [4 x i8] }
%struct.UTrie2 = type { ptr, ptr, ptr, i32, i32, i16, i16, i32, i32, i32, i32, ptr, i32, i8, i8, i16, ptr }
%struct.USetAdder = type { ptr, ptr, ptr, ptr, ptr, ptr }

; Function Attrs: inlinehint mustprogress nounwind uwtable
define internal noundef signext i8 @_ZL9U_FAILURE10UErrorCode(i32 noundef %0) #2 {
  %2 = alloca i32, align 4
  store i32 %0, ptr %2, align 4, !tbaa !9
  %3 = load i32, ptr %2, align 4, !tbaa !9
  %4 = icmp sgt i32 %3, 0
  %5 = zext i1 %4 to i8
  ret i8 %5
}

; Function Attrs: mustprogress uwtable
define void @ubidi_addPropertyStarts_77(ptr noundef %0, ptr noundef %1) #0 {
  %3 = alloca ptr, align 8
  %4 = alloca ptr, align 8
  %5 = alloca i32, align 4
  %6 = alloca i32, align 4
  %7 = alloca i32, align 4
  %8 = alloca i32, align 4
  %9 = alloca i32, align 4
  %10 = alloca ptr, align 8
  %11 = alloca i8, align 1
  %12 = alloca i8, align 1
  %13 = alloca i32, align 4
  store ptr %0, ptr %3, align 8, !tbaa !3
  store ptr %1, ptr %4, align 8, !tbaa !8
  call void @llvm.lifetime.start.p0(i64 4, ptr %5) #5
  call void @llvm.lifetime.start.p0(i64 4, ptr %6) #5
  call void @llvm.lifetime.start.p0(i64 4, ptr %7) #5
  call void @llvm.lifetime.start.p0(i64 4, ptr %8) #5
  call void @llvm.lifetime.start.p0(i64 4, ptr %9) #5
  call void @llvm.lifetime.start.p0(i64 8, ptr %10) #5
  call void @llvm.lifetime.start.p0(i64 1, ptr %11) #5
  call void @llvm.lifetime.start.p0(i64 1, ptr %12) #5
  %14 = load ptr, ptr %4, align 8, !tbaa !8
  %15 = load i32, ptr %14, align 4, !tbaa !9
  %16 = call noundef signext i8 @_ZL9U_FAILURE10UErrorCode(i32 noundef %15)
  %17 = icmp ne i8 %16, 0
  br i1 %17, label %18, label %19

18:                                               ; preds = %2
  store i32 1, ptr %13, align 4
  br label %110

19:                                               ; preds = %2
  %20 = load ptr, ptr %3, align 8, !tbaa !3
  call void @utrie2_enum_77(ptr noundef getelementptr inbounds nuw (%struct.UBiDiProps, ptr @_ZL21ubidi_props_singleton, i32 0, i32 5), ptr noundef null, ptr noundef @_ZL24_enumPropertyStartsRangePKviij, ptr noundef %20)
  %21 = load ptr, ptr getelementptr inbounds nuw (%struct.UBiDiProps, ptr @_ZL21ubidi_props_singleton, i32 0, i32 1), align 8, !tbaa !11
  %22 = getelementptr inbounds nuw i32, ptr %21, i64 3
  %23 = load i32, ptr %22, align 4, !tbaa !21
  store i32 %23, ptr %6, align 4, !tbaa !21
  store i32 0, ptr %5, align 4, !tbaa !21
  br label %24

24:                                               ; preds = %44, %19
  %25 = load i32, ptr %5, align 4, !tbaa !21
  %26 = load i32, ptr %6, align 4, !tbaa !21
  %27 = icmp slt i32 %25, %26
  br i1 %27, label %28, label %47

28:                                               ; preds = %24
  %29 = load ptr, ptr getelementptr inbounds nuw (%struct.UBiDiProps, ptr @_ZL21ubidi_props_singleton, i32 0, i32 2), align 8, !tbaa !22
  %30 = load i32, ptr %5, align 4, !tbaa !21
  %31 = sext i32 %30 to i64
  %32 = getelementptr inbounds i32, ptr %29, i64 %31
  %33 = load i32, ptr %32, align 4, !tbaa !21
  %34 = and i32 %33, 2097151
  store i32 %34, ptr %7, align 4, !tbaa !21
  %35 = load ptr, ptr %3, align 8, !tbaa !3
  %36 = getelementptr inbounds nuw %struct.USetAdder, ptr %35, i32 0, i32 2
  %37 = load ptr, ptr %36, align 8, !tbaa !23
  %38 = load ptr, ptr %3, align 8, !tbaa !3
  %39 = getelementptr inbounds nuw %struct.USetAdder, ptr %38, i32 0, i32 0
  %40 = load ptr, ptr %39, align 8, !tbaa !26
  %41 = load i32, ptr %7, align 4, !tbaa !21
  %42 = load i32, ptr %7, align 4, !tbaa !21
  %43 = add nsw i32 %42, 1
  call void %37(ptr noundef %40, i32 noundef %41, i32 noundef %43)
  br label %44

44:                                               ; preds = %28
  %45 = load i32, ptr %5, align 4, !tbaa !21
  %46 = add nsw i32 %45, 1
  store i32 %46, ptr %5, align 4, !tbaa !21
  br label %24, !llvm.loop !27

47:                                               ; preds = %24
  %48 = load ptr, ptr getelementptr inbounds nuw (%struct.UBiDiProps, ptr @_ZL21ubidi_props_singleton, i32 0, i32 1), align 8, !tbaa !11
  %49 = getelementptr inbounds nuw i32, ptr %48, i64 4
  %50 = load i32, ptr %49, align 4, !tbaa !21
  store i32 %50, ptr %8, align 4, !tbaa !21
  %51 = load ptr, ptr getelementptr inbounds nuw (%struct.UBiDiProps, ptr @_ZL21ubidi_props_singleton, i32 0, i32 1), align 8, !tbaa !11
  %52 = getelementptr inbounds nuw i32, ptr %51, i64 5
  %53 = load i32, ptr %52, align 4, !tbaa !21
  store i32 %53, ptr %9, align 4, !tbaa !21
  %54 = load ptr, ptr getelementptr inbounds nuw (%struct.UBiDiProps, ptr @_ZL21ubidi_props_singleton, i32 0, i32 3), align 8, !tbaa !29
  store ptr %54, ptr %10, align 8, !tbaa !30
  br label %55

55:                                               ; preds = %108, %47
  store i8 0, ptr %11, align 1, !tbaa !31
  br label %56

56:                                               ; preds = %78, %55
  %57 = load i32, ptr %8, align 4, !tbaa !21
  %58 = load i32, ptr %9, align 4, !tbaa !21
  %59 = icmp slt i32 %57, %58
  br i1 %59, label %60, label %81

60:                                               ; preds = %56
  %61 = load ptr, ptr %10, align 8, !tbaa !30
  %62 = getelementptr inbounds nuw i8, ptr %61, i32 1
  store ptr %62, ptr %10, align 8, !tbaa !30
  %63 = load i8, ptr %61, align 1, !tbaa !31
  store i8 %63, ptr %12, align 1, !tbaa !31
  %64 = load i8, ptr %12, align 1, !tbaa !31
  %65 = zext i8 %64 to i32
  %66 = load i8, ptr %11, align 1, !tbaa !31
  %67 = zext i8 %66 to i32
  %68 = icmp ne i32 %65, %67
  br i1 %68, label %69, label %78

69:                                               ; preds = %60
  %70 = load ptr, ptr %3, align 8, !tbaa !3
  %71 = getelementptr inbounds nuw %struct.USetAdder, ptr %70, i32 0, i32 1
  %72 = load ptr, ptr %71, align 8, !tbaa !32
  %73 = load ptr, ptr %3, align 8, !tbaa !3
  %74 = getelementptr inbounds nuw %struct.USetAdder, ptr %73, i32 0, i32 0
  %75 = load ptr, ptr %74, align 8, !tbaa !26
  %76 = load i32, ptr %8, align 4, !tbaa !21
  call void %72(ptr noundef %75, i32 noundef %76)
  %77 = load i8, ptr %12, align 1, !tbaa !31
  store i8 %77, ptr %11, align 1, !tbaa !31
  br label %78

78:                                               ; preds = %69, %60
  %79 = load i32, ptr %8, align 4, !tbaa !21
  %80 = add nsw i32 %79, 1
  store i32 %80, ptr %8, align 4, !tbaa !21
  br label %56, !llvm.loop !33

81:                                               ; preds = %56
  %82 = load i8, ptr %11, align 1, !tbaa !31
  %83 = zext i8 %82 to i32
  %84 = icmp ne i32 %83, 0
  br i1 %84, label %85, label %93

85:                                               ; preds = %81
  %86 = load ptr, ptr %3, align 8, !tbaa !3
  %87 = getelementptr inbounds nuw %struct.USetAdder, ptr %86, i32 0, i32 1
  %88 = load ptr, ptr %87, align 8, !tbaa !32
  %89 = load ptr, ptr %3, align 8, !tbaa !3
  %90 = getelementptr inbounds nuw %struct.USetAdder, ptr %89, i32 0, i32 0
  %91 = load ptr, ptr %90, align 8, !tbaa !26
  %92 = load i32, ptr %9, align 4, !tbaa !21
  call void %88(ptr noundef %91, i32 noundef %92)
  br label %93

93:                                               ; preds = %85, %81
  %94 = load i32, ptr %9, align 4, !tbaa !21
  %95 = load ptr, ptr getelementptr inbounds nuw (%struct.UBiDiProps, ptr @_ZL21ubidi_props_singleton, i32 0, i32 1), align 8, !tbaa !11
  %96 = getelementptr inbounds nuw i32, ptr %95, i64 5
  %97 = load i32, ptr %96, align 4, !tbaa !21
  %98 = icmp eq i32 %94, %97
  br i1 %98, label %99, label %107

99:                                               ; preds = %93
  %100 = load ptr, ptr getelementptr inbounds nuw (%struct.UBiDiProps, ptr @_ZL21ubidi_props_singleton, i32 0, i32 1), align 8, !tbaa !11
  %101 = getelementptr inbounds nuw i32, ptr %100, i64 6
  %102 = load i32, ptr %101, align 4, !tbaa !21
  store i32 %102, ptr %8, align 4, !tbaa !21
  %103 = load ptr, ptr getelementptr inbounds nuw (%struct.UBiDiProps, ptr @_ZL21ubidi_props_singleton, i32 0, i32 1), align 8, !tbaa !11
  %104 = getelementptr inbounds nuw i32, ptr %103, i64 7
  %105 = load i32, ptr %104, align 4, !tbaa !21
  store i32 %105, ptr %9, align 4, !tbaa !21
  %106 = load ptr, ptr getelementptr inbounds nuw (%struct.UBiDiProps, ptr @_ZL21ubidi_props_singleton, i32 0, i32 4), align 8, !tbaa !34
  store ptr %106, ptr %10, align 8, !tbaa !30
  br label %108

107:                                              ; preds = %93
  br label %109

108:                                              ; preds = %99
  br label %55, !llvm.loop !35

109:                                              ; preds = %107
  store i32 0, ptr %13, align 4
  br label %110

110:                                              ; preds = %109, %18
  call void @llvm.lifetime.end.p0(i64 1, ptr %12) #5
  call void @llvm.lifetime.end.p0(i64 1, ptr %11) #5
  call void @llvm.lifetime.end.p0(i64 8, ptr %10) #5
  call void @llvm.lifetime.end.p0(i64 4, ptr %9) #5
  call void @llvm.lifetime.end.p0(i64 4, ptr %8) #5
  call void @llvm.lifetime.end.p0(i64 4, ptr %7) #5
  call void @llvm.lifetime.end.p0(i64 4, ptr %6) #5
  call void @llvm.lifetime.end.p0(i64 4, ptr %5) #5
  %111 = load i32, ptr %13, align 4
  switch i32 %111, label %113 [
    i32 0, label %112
    i32 1, label %112
  ]

112:                                              ; preds = %110, %110
  ret void

113:                                              ; preds = %110
  unreachable
}