; Function Attrs: mustprogress uwtable
define void @ubidi_addPropertyStarts_77(ptr noundef %0, ptr noundef readonly captures(none) %1) local_unnamed_addr #0 {
  %3 = load i32, ptr %1, align 4, !tbaa !3
  %4 = icmp slt i32 %3, 1
  br i1 %4, label %5, label %.loopexit

5:                                                ; preds = %2
  tail call void @utrie2_enum_77(ptr noundef nonnull getelementptr inbounds nuw (i8, ptr @_ZL21ubidi_props_singleton, i64 40), ptr noundef null, ptr noundef nonnull @_ZL24_enumPropertyStartsRangePKviij, ptr noundef %0)
  %6 = getelementptr inbounds nuw i8, ptr %0, i64 16
  br label %8

.preheader:                                       ; preds = %8
  %7 = getelementptr inbounds nuw i8, ptr %0, i64 8
  br label %15

8:                                                ; preds = %5, %8
  %indvars.iv = phi i64 [ 0, %5 ], [ %indvars.iv.next, %8 ]
  %9 = getelementptr inbounds nuw i32, ptr @_ZL19ubidi_props_mirrors, i64 %indvars.iv
  %10 = load i32, ptr %9, align 4, !tbaa !7
  %11 = and i32 %10, 2097151
  %12 = load ptr, ptr %6, align 8, !tbaa !9
  %13 = load ptr, ptr %0, align 8, !tbaa !13
  %14 = add nuw nsw i32 %11, 1
  tail call void %12(ptr noundef %13, i32 noundef %11, i32 noundef %14)
  %indvars.iv.next = add nuw nsw i64 %indvars.iv, 1
  %exitcond.not = icmp eq i64 %indvars.iv.next, 40
  br i1 %exitcond.not, label %.preheader, label %8, !llvm.loop !14

15:                                               ; preds = %.preheader, %._crit_edge.thread
  %.028 = phi i32 [ 68288, %._crit_edge.thread ], [ 1568, %.preheader ]
  %16 = phi i1 [ false, %._crit_edge.thread ], [ true, %.preheader ]
  %.027 = phi i32 [ 69317, %._crit_edge.thread ], [ 2251, %.preheader ]
  %.025 = phi ptr [ @_ZL20ubidi_props_jgArray2, %._crit_edge.thread ], [ @_ZL19ubidi_props_jgArray, %.preheader ]
  %17 = icmp samesign ult i32 %.028, %.027
  br i1 %17, label %.lr.ph.preheader, label %._crit_edge.thread

.lr.ph.preheader:                                 ; preds = %15
  %18 = xor i32 %.028, -1
  %19 = add nsw i32 %.027, %18
  %20 = zext i32 %19 to i64
  %scevgep = getelementptr i8, ptr %.025, i64 %20
  br label %.lr.ph

.lr.ph:                                           ; preds = %.lr.ph.preheader, %26
  %.02435 = phi i8 [ %.1, %26 ], [ 0, %.lr.ph.preheader ]
  %.12634 = phi ptr [ %21, %26 ], [ %.025, %.lr.ph.preheader ]
  %.12933 = phi i32 [ %27, %26 ], [ %.028, %.lr.ph.preheader ]
  %21 = getelementptr inbounds nuw i8, ptr %.12634, i64 1
  %22 = load i8, ptr %.12634, align 1, !tbaa !16
  %.not31 = icmp eq i8 %22, %.02435
  br i1 %.not31, label %26, label %23

23:                                               ; preds = %.lr.ph
  %24 = load ptr, ptr %7, align 8, !tbaa !17
  %25 = load ptr, ptr %0, align 8, !tbaa !13
  tail call void %24(ptr noundef %25, i32 noundef %.12933)
  br label %26

26:                                               ; preds = %23, %.lr.ph
  %.1 = phi i8 [ %22, %23 ], [ %.02435, %.lr.ph ]
  %27 = add nuw nsw i32 %.12933, 1
  %exitcond37.not = icmp eq ptr %.12634, %scevgep
  br i1 %exitcond37.not, label %._crit_edge, label %.lr.ph, !llvm.loop !18

._crit_edge:                                      ; preds = %26
  %28 = icmp eq i8 %.1, 0
  br i1 %28, label %._crit_edge.thread, label %29

29:                                               ; preds = %._crit_edge
  %30 = load ptr, ptr %7, align 8, !tbaa !17
  %31 = load ptr, ptr %0, align 8, !tbaa !13
  tail call void %30(ptr noundef %31, i32 noundef %.027)
  br label %._crit_edge.thread

._crit_edge.thread:                               ; preds = %15, %29, %._crit_edge
  br i1 %16, label %15, label %.loopexit, !llvm.loop !19

.loopexit:                                        ; preds = %._crit_edge.thread, %2
  ret void
}